; Function Attrs: nounwind uwtable
define hidden void @SDL_BindGPUIndexBuffer_REAL(ptr noundef readonly captures(address_is_null) %0, ptr noundef %1, i32 noundef %2) local_unnamed_addr #0 {
  %4 = icmp eq ptr %0, null
  br i1 %4, label %5, label %7

5:                                                ; preds = %3
  %6 = tail call zeroext i1 (ptr, ...) @SDL_SetError_REAL(ptr noundef nonnull @.str.4, ptr noundef nonnull @.str.225) #7
  br label %.thread

7:                                                ; preds = %3
  %8 = icmp eq ptr %1, null
  br i1 %8, label %9, label %11

9:                                                ; preds = %7
  %10 = tail call zeroext i1 (ptr, ...) @SDL_SetError_REAL(ptr noundef nonnull @.str.4, ptr noundef nonnull @.str.232) #7
  br label %.thread

11:                                               ; preds = %7
  %12 = load ptr, ptr %0, align 8
  %13 = load ptr, ptr %12, align 8
  %14 = getelementptr inbounds nuw i8, ptr %13, i64 684
  %15 = load i8, ptr %14, align 4, !range !5, !noundef !6
  %16 = trunc nuw i8 %15 to i1
  br i1 %16, label %17, label %23

17:                                               ; preds = %11
  %18 = getelementptr inbounds nuw i8, ptr %0, i64 8
  %19 = load i8, ptr %18, align 8, !range !5, !noundef !6
  %20 = trunc nuw i8 %19 to i1
  br i1 %20, label %23, label %.preheader

.preheader:                                       ; preds = %17, %.preheader
  %21 = tail call i32 @SDL_ReportAssertion_REAL(ptr noundef nonnull @SDL_BindGPUIndexBuffer_REAL.sdl_assert_data, ptr noundef nonnull @__func__.SDL_BindGPUIndexBuffer_REAL, ptr noundef nonnull @.str.8, i32 noundef 1839) #7
  switch i32 %21, label %.thread [
    i32 0, label %.preheader
    i32 1, label %22
  ]

22:                                               ; preds = %.preheader
  tail call void @llvm.debugtrap()
  br label %.thread

23:                                               ; preds = %17, %11
  %24 = getelementptr inbounds nuw i8, ptr %13, i64 224
  %25 = load ptr, ptr %24, align 8
  tail call void %25(ptr noundef nonnull %12, ptr noundef nonnull %1, i32 noundef %2) #7
  br label %.thread

.thread:                                          ; preds = %.preheader, %22, %23, %9, %5
  ret void
}